; Function Attrs: nofree norecurse nosync nounwind memory(read, argmem: readwrite, inaccessiblemem: none) uwtable
define dso_local void @ewah_iterator_init(ptr noundef writeonly captures(none) initializes((0, 60)) %0, ptr noundef readonly captures(none) %1) local_unnamed_addr #6 {
  %3 = load ptr, ptr %1, align 8, !tbaa !14
  store ptr %3, ptr %0, align 8, !tbaa !31
  %4 = getelementptr inbounds nuw i8, ptr %1, i64 8
  %5 = load i64, ptr %4, align 8, !tbaa !13
  %6 = getelementptr inbounds nuw i8, ptr %0, i64 8
  store i64 %5, ptr %6, align 8, !tbaa !26
  %7 = getelementptr inbounds nuw i8, ptr %0, i64 16
  %8 = getelementptr inbounds nuw i8, ptr %0, i64 48
  %9 = getelementptr inbounds nuw i8, ptr %0, i64 40
  %10 = getelementptr inbounds nuw i8, ptr %0, i64 56
  %.not = icmp eq i64 %5, 0
  tail call void @llvm.memset.p0.i64(ptr noundef nonnull align 8 dereferenceable(44) %7, i8 0, i64 44, i1 false)
  br i1 %.not, label %read_new_rlw.exit, label %11

11:                                               ; preds = %2
  %12 = getelementptr inbounds nuw i8, ptr %0, i64 24
  tail call void @llvm.memset.p0.i64(ptr noundef nonnull align 8 dereferenceable(16) %12, i8 0, i64 16, i1 false)
  %.val1823.i = load i64, ptr %3, align 8, !tbaa !12
  %13 = lshr i64 %.val1823.i, 1
  %14 = and i64 %13, 4294967295
  store i64 %14, ptr %9, align 8, !tbaa !28
  %.val1924.i = load i64, ptr %3, align 8, !tbaa !12
  %15 = lshr i64 %.val1924.i, 33
  store i64 %15, ptr %8, align 8, !tbaa !32
  %.val25.i = load i64, ptr %3, align 8, !tbaa !12
  %16 = trunc i64 %.val25.i to i32
  %17 = and i32 %16, 1
  %.not26.i = icmp eq i64 %14, 0
  %.not1727.i = icmp ult i64 %.val1924.i, 8589934592
  %or.cond28.i = select i1 %.not26.i, i1 %.not1727.i, i1 false
  br i1 %or.cond28.i, label %.lr.ph.i, label %.loopexit.i

.lr.ph.i:                                         ; preds = %11
  %18 = add i64 %5, -1
  %.not15 = icmp eq i64 %18, 0
  br i1 %.not15, label %._crit_edge, label %.lr.ph

19:                                               ; preds = %.lr.ph
  %exitcond.not = icmp eq i64 %21, %18
  br i1 %exitcond.not, label %._crit_edge.loopexit, label %.lr.ph

.lr.ph:                                           ; preds = %.lr.ph.i, %19
  %20 = phi i64 [ %21, %19 ], [ 0, %.lr.ph.i ]
  %21 = add nuw i64 %20, 1
  store i64 %21, ptr %7, align 8, !tbaa !23
  %22 = getelementptr inbounds nuw i64, ptr %3, i64 %21
  %.val18.i = load i64, ptr %22, align 8, !tbaa !12
  %23 = lshr i64 %.val18.i, 1
  %24 = and i64 %23, 4294967295
  store i64 %24, ptr %9, align 8, !tbaa !28
  %.val19.i = load i64, ptr %22, align 8, !tbaa !12
  %25 = lshr i64 %.val19.i, 33
  store i64 %25, ptr %8, align 8, !tbaa !32
  %.not.i = icmp eq i64 %24, 0
  %.not17.i = icmp ult i64 %.val19.i, 8589934592
  %or.cond.i = select i1 %.not.i, i1 %.not17.i, i1 false
  br i1 %or.cond.i, label %19, label %.loopexit.i.loopexit

._crit_edge.loopexit:                             ; preds = %19
  %26 = getelementptr inbounds nuw i64, ptr %3, i64 %21
  %.val.i.le = load i64, ptr %26, align 8, !tbaa !12
  %27 = trunc i64 %.val.i.le to i32
  %28 = and i32 %27, 1
  br label %._crit_edge

._crit_edge:                                      ; preds = %._crit_edge.loopexit, %.lr.ph.i
  %.lcssa = phi i32 [ %17, %.lr.ph.i ], [ %28, %._crit_edge.loopexit ]
  store i32 %.lcssa, ptr %10, align 8, !tbaa !29
  store i64 %5, ptr %7, align 8, !tbaa !23
  br label %read_new_rlw.exit

.loopexit.i.loopexit:                             ; preds = %.lr.ph
  %29 = getelementptr inbounds nuw i64, ptr %3, i64 %21
  %.val.i.le24 = load i64, ptr %29, align 8, !tbaa !12
  %30 = trunc i64 %.val.i.le24 to i32
  %31 = and i32 %30, 1
  br label %.loopexit.i

.loopexit.i:                                      ; preds = %.loopexit.i.loopexit, %11
  %.lcssa.i = phi i32 [ %17, %11 ], [ %31, %.loopexit.i.loopexit ]
  store i32 %.lcssa.i, ptr %10, align 8, !tbaa !29
  br label %read_new_rlw.exit

read_new_rlw.exit:                                ; preds = %.loopexit.i, %._crit_edge, %2
  ret void
}